; Function Attrs: nounwind uwtable
define i32 @Dau_DsdCheckDecAndExist(ptr noundef %0) local_unnamed_addr #3 {
  %2 = alloca ptr, align 8
  %3 = alloca i32, align 4
  store ptr %0, ptr %2, align 8, !tbaa !3
  call void @llvm.lifetime.start.p0(i64 4, ptr nonnull %3) #6
  store i32 0, ptr %3, align 4, !tbaa !11
  %4 = getelementptr inbounds nuw i8, ptr %0, i64 1
  %5 = load i8, ptr %4, align 1, !tbaa !8
  %6 = icmp eq i8 %5, 0
  br i1 %6, label %10, label %7

7:                                                ; preds = %1
  %8 = tail call ptr @Dau_DsdComputeMatches(ptr noundef nonnull %0) #6
  %9 = call i32 @Dau_DsdCheckDecAndExist_rec(ptr noundef nonnull %0, ptr noundef nonnull %2, ptr noundef %8, ptr noundef nonnull %3)
  br label %10

10:                                               ; preds = %1, %7
  %.0 = phi i32 [ %9, %7 ], [ 1, %1 ]
  call void @llvm.lifetime.end.p0(i64 4, ptr nonnull %3) #6
  ret i32 %.0
}